
main.bin：     文件格式 elf32-i386


Disassembly of section .text:

080480a0 <main>:
 80480a0:	55                   	push   %ebp
 80480a1:	89 e5                	mov    %esp,%ebp
 80480a3:	83 e4 f0             	and    $0xfffffff0,%esp
 80480a6:	83 ec 10             	sub    $0x10,%esp
 80480a9:	c7 04 24 30 8c 04 08 	movl   $0x8048c30,(%esp)
 80480b0:	e8 a5 06 00 00       	call   804875a <printf>
 80480b5:	eb fe                	jmp    80480b5 <main+0x15>

080480b7 <getpid>:
 80480b7:	55                   	push   %ebp
 80480b8:	89 e5                	mov    %esp,%ebp
 80480ba:	83 ec 10             	sub    $0x10,%esp
 80480bd:	b8 01 00 00 00       	mov    $0x1,%eax
 80480c2:	cd 80                	int    $0x80
 80480c4:	89 45 fc             	mov    %eax,-0x4(%ebp)
 80480c7:	8b 45 fc             	mov    -0x4(%ebp),%eax
 80480ca:	c9                   	leave  
 80480cb:	c3                   	ret    

080480cc <malloc>:
 80480cc:	55                   	push   %ebp
 80480cd:	89 e5                	mov    %esp,%ebp
 80480cf:	53                   	push   %ebx
 80480d0:	83 ec 10             	sub    $0x10,%esp
 80480d3:	b8 02 00 00 00       	mov    $0x2,%eax
 80480d8:	8b 55 08             	mov    0x8(%ebp),%edx
 80480db:	89 d3                	mov    %edx,%ebx
 80480dd:	cd 80                	int    $0x80
 80480df:	89 45 f8             	mov    %eax,-0x8(%ebp)
 80480e2:	8b 45 f8             	mov    -0x8(%ebp),%eax
 80480e5:	83 c4 10             	add    $0x10,%esp
 80480e8:	5b                   	pop    %ebx
 80480e9:	5d                   	pop    %ebp
 80480ea:	c3                   	ret    

080480eb <free>:
 80480eb:	55                   	push   %ebp
 80480ec:	89 e5                	mov    %esp,%ebp
 80480ee:	53                   	push   %ebx
 80480ef:	83 ec 10             	sub    $0x10,%esp
 80480f2:	b8 03 00 00 00       	mov    $0x3,%eax
 80480f7:	8b 55 08             	mov    0x8(%ebp),%edx
 80480fa:	89 d3                	mov    %edx,%ebx
 80480fc:	cd 80                	int    $0x80
 80480fe:	89 45 f8             	mov    %eax,-0x8(%ebp)
 8048101:	90                   	nop
 8048102:	83 c4 10             	add    $0x10,%esp
 8048105:	5b                   	pop    %ebx
 8048106:	5d                   	pop    %ebp
 8048107:	c3                   	ret    

08048108 <fork>:
 8048108:	55                   	push   %ebp
 8048109:	89 e5                	mov    %esp,%ebp
 804810b:	83 ec 10             	sub    $0x10,%esp
 804810e:	b8 04 00 00 00       	mov    $0x4,%eax
 8048113:	cd 80                	int    $0x80
 8048115:	89 45 fc             	mov    %eax,-0x4(%ebp)
 8048118:	8b 45 fc             	mov    -0x4(%ebp),%eax
 804811b:	c9                   	leave  
 804811c:	c3                   	ret    

0804811d <open>:
 804811d:	55                   	push   %ebp
 804811e:	89 e5                	mov    %esp,%ebp
 8048120:	53                   	push   %ebx
 8048121:	83 ec 14             	sub    $0x14,%esp
 8048124:	8b 45 0c             	mov    0xc(%ebp),%eax
 8048127:	88 45 e8             	mov    %al,-0x18(%ebp)
 804812a:	b8 05 00 00 00       	mov    $0x5,%eax
 804812f:	8b 55 08             	mov    0x8(%ebp),%edx
 8048132:	0f b6 4d e8          	movzbl -0x18(%ebp),%ecx
 8048136:	89 d3                	mov    %edx,%ebx
 8048138:	cd 80                	int    $0x80
 804813a:	89 45 f8             	mov    %eax,-0x8(%ebp)
 804813d:	8b 45 f8             	mov    -0x8(%ebp),%eax
 8048140:	83 c4 14             	add    $0x14,%esp
 8048143:	5b                   	pop    %ebx
 8048144:	5d                   	pop    %ebp
 8048145:	c3                   	ret    

08048146 <close>:
 8048146:	55                   	push   %ebp
 8048147:	89 e5                	mov    %esp,%ebp
 8048149:	53                   	push   %ebx
 804814a:	83 ec 10             	sub    $0x10,%esp
 804814d:	b8 06 00 00 00       	mov    $0x6,%eax
 8048152:	8b 55 08             	mov    0x8(%ebp),%edx
 8048155:	89 d3                	mov    %edx,%ebx
 8048157:	cd 80                	int    $0x80
 8048159:	89 45 f8             	mov    %eax,-0x8(%ebp)
 804815c:	8b 45 f8             	mov    -0x8(%ebp),%eax
 804815f:	83 c4 10             	add    $0x10,%esp
 8048162:	5b                   	pop    %ebx
 8048163:	5d                   	pop    %ebp
 8048164:	c3                   	ret    

08048165 <read>:
 8048165:	55                   	push   %ebp
 8048166:	89 e5                	mov    %esp,%ebp
 8048168:	53                   	push   %ebx
 8048169:	83 ec 10             	sub    $0x10,%esp
 804816c:	b8 07 00 00 00       	mov    $0x7,%eax
 8048171:	8b 5d 08             	mov    0x8(%ebp),%ebx
 8048174:	8b 4d 0c             	mov    0xc(%ebp),%ecx
 8048177:	8b 55 10             	mov    0x10(%ebp),%edx
 804817a:	cd 80                	int    $0x80
 804817c:	89 45 f8             	mov    %eax,-0x8(%ebp)
 804817f:	8b 45 f8             	mov    -0x8(%ebp),%eax
 8048182:	83 c4 10             	add    $0x10,%esp
 8048185:	5b                   	pop    %ebx
 8048186:	5d                   	pop    %ebp
 8048187:	c3                   	ret    

08048188 <write>:
 8048188:	55                   	push   %ebp
 8048189:	89 e5                	mov    %esp,%ebp
 804818b:	53                   	push   %ebx
 804818c:	83 ec 10             	sub    $0x10,%esp
 804818f:	b8 08 00 00 00       	mov    $0x8,%eax
 8048194:	8b 5d 08             	mov    0x8(%ebp),%ebx
 8048197:	8b 4d 0c             	mov    0xc(%ebp),%ecx
 804819a:	8b 55 10             	mov    0x10(%ebp),%edx
 804819d:	cd 80                	int    $0x80
 804819f:	89 45 f8             	mov    %eax,-0x8(%ebp)
 80481a2:	8b 45 f8             	mov    -0x8(%ebp),%eax
 80481a5:	83 c4 10             	add    $0x10,%esp
 80481a8:	5b                   	pop    %ebx
 80481a9:	5d                   	pop    %ebp
 80481aa:	c3                   	ret    

080481ab <lseek>:
 80481ab:	55                   	push   %ebp
 80481ac:	89 e5                	mov    %esp,%ebp
 80481ae:	53                   	push   %ebx
 80481af:	83 ec 14             	sub    $0x14,%esp
 80481b2:	8b 45 10             	mov    0x10(%ebp),%eax
 80481b5:	88 45 e8             	mov    %al,-0x18(%ebp)
 80481b8:	b8 09 00 00 00       	mov    $0x9,%eax
 80481bd:	8b 5d 08             	mov    0x8(%ebp),%ebx
 80481c0:	8b 4d 0c             	mov    0xc(%ebp),%ecx
 80481c3:	0f b6 55 e8          	movzbl -0x18(%ebp),%edx
 80481c7:	cd 80                	int    $0x80
 80481c9:	89 45 f8             	mov    %eax,-0x8(%ebp)
 80481cc:	8b 45 f8             	mov    -0x8(%ebp),%eax
 80481cf:	83 c4 14             	add    $0x14,%esp
 80481d2:	5b                   	pop    %ebx
 80481d3:	5d                   	pop    %ebp
 80481d4:	c3                   	ret    

080481d5 <unlink>:
 80481d5:	55                   	push   %ebp
 80481d6:	89 e5                	mov    %esp,%ebp
 80481d8:	53                   	push   %ebx
 80481d9:	83 ec 10             	sub    $0x10,%esp
 80481dc:	b8 0a 00 00 00       	mov    $0xa,%eax
 80481e1:	8b 55 08             	mov    0x8(%ebp),%edx
 80481e4:	89 d3                	mov    %edx,%ebx
 80481e6:	cd 80                	int    $0x80
 80481e8:	89 45 f8             	mov    %eax,-0x8(%ebp)
 80481eb:	8b 45 f8             	mov    -0x8(%ebp),%eax
 80481ee:	83 c4 10             	add    $0x10,%esp
 80481f1:	5b                   	pop    %ebx
 80481f2:	5d                   	pop    %ebp
 80481f3:	c3                   	ret    

080481f4 <rmdir>:
 80481f4:	55                   	push   %ebp
 80481f5:	89 e5                	mov    %esp,%ebp
 80481f7:	53                   	push   %ebx
 80481f8:	83 ec 10             	sub    $0x10,%esp
 80481fb:	b8 0b 00 00 00       	mov    $0xb,%eax
 8048200:	8b 55 08             	mov    0x8(%ebp),%edx
 8048203:	89 d3                	mov    %edx,%ebx
 8048205:	cd 80                	int    $0x80
 8048207:	89 45 f8             	mov    %eax,-0x8(%ebp)
 804820a:	8b 45 f8             	mov    -0x8(%ebp),%eax
 804820d:	83 c4 10             	add    $0x10,%esp
 8048210:	5b                   	pop    %ebx
 8048211:	5d                   	pop    %ebp
 8048212:	c3                   	ret    

08048213 <readdir>:
 8048213:	55                   	push   %ebp
 8048214:	89 e5                	mov    %esp,%ebp
 8048216:	53                   	push   %ebx
 8048217:	83 ec 10             	sub    $0x10,%esp
 804821a:	b8 0c 00 00 00       	mov    $0xc,%eax
 804821f:	8b 55 08             	mov    0x8(%ebp),%edx
 8048222:	8b 4d 0c             	mov    0xc(%ebp),%ecx
 8048225:	89 d3                	mov    %edx,%ebx
 8048227:	cd 80                	int    $0x80
 8048229:	89 45 f8             	mov    %eax,-0x8(%ebp)
 804822c:	8b 45 f8             	mov    -0x8(%ebp),%eax
 804822f:	83 c4 10             	add    $0x10,%esp
 8048232:	5b                   	pop    %ebx
 8048233:	5d                   	pop    %ebp
 8048234:	c3                   	ret    

08048235 <rewinddir>:
 8048235:	55                   	push   %ebp
 8048236:	89 e5                	mov    %esp,%ebp
 8048238:	53                   	push   %ebx
 8048239:	83 ec 10             	sub    $0x10,%esp
 804823c:	b8 0d 00 00 00       	mov    $0xd,%eax
 8048241:	8b 55 08             	mov    0x8(%ebp),%edx
 8048244:	89 d3                	mov    %edx,%ebx
 8048246:	cd 80                	int    $0x80
 8048248:	89 45 f8             	mov    %eax,-0x8(%ebp)
 804824b:	8b 45 f8             	mov    -0x8(%ebp),%eax
 804824e:	83 c4 10             	add    $0x10,%esp
 8048251:	5b                   	pop    %ebx
 8048252:	5d                   	pop    %ebp
 8048253:	c3                   	ret    

08048254 <mkdir>:
 8048254:	55                   	push   %ebp
 8048255:	89 e5                	mov    %esp,%ebp
 8048257:	53                   	push   %ebx
 8048258:	83 ec 10             	sub    $0x10,%esp
 804825b:	b8 0e 00 00 00       	mov    $0xe,%eax
 8048260:	8b 55 08             	mov    0x8(%ebp),%edx
 8048263:	89 d3                	mov    %edx,%ebx
 8048265:	cd 80                	int    $0x80
 8048267:	89 45 f8             	mov    %eax,-0x8(%ebp)
 804826a:	8b 45 f8             	mov    -0x8(%ebp),%eax
 804826d:	83 c4 10             	add    $0x10,%esp
 8048270:	5b                   	pop    %ebx
 8048271:	5d                   	pop    %ebp
 8048272:	c3                   	ret    

08048273 <closedir>:
 8048273:	55                   	push   %ebp
 8048274:	89 e5                	mov    %esp,%ebp
 8048276:	53                   	push   %ebx
 8048277:	83 ec 10             	sub    $0x10,%esp
 804827a:	b8 0f 00 00 00       	mov    $0xf,%eax
 804827f:	8b 55 08             	mov    0x8(%ebp),%edx
 8048282:	89 d3                	mov    %edx,%ebx
 8048284:	cd 80                	int    $0x80
 8048286:	89 45 f8             	mov    %eax,-0x8(%ebp)
 8048289:	8b 45 f8             	mov    -0x8(%ebp),%eax
 804828c:	83 c4 10             	add    $0x10,%esp
 804828f:	5b                   	pop    %ebx
 8048290:	5d                   	pop    %ebp
 8048291:	c3                   	ret    

08048292 <opendir>:
 8048292:	55                   	push   %ebp
 8048293:	89 e5                	mov    %esp,%ebp
 8048295:	53                   	push   %ebx
 8048296:	83 ec 10             	sub    $0x10,%esp
 8048299:	b8 10 00 00 00       	mov    $0x10,%eax
 804829e:	8b 55 08             	mov    0x8(%ebp),%edx
 80482a1:	89 d3                	mov    %edx,%ebx
 80482a3:	cd 80                	int    $0x80
 80482a5:	89 45 f8             	mov    %eax,-0x8(%ebp)
 80482a8:	8b 45 f8             	mov    -0x8(%ebp),%eax
 80482ab:	83 c4 10             	add    $0x10,%esp
 80482ae:	5b                   	pop    %ebx
 80482af:	5d                   	pop    %ebp
 80482b0:	c3                   	ret    

080482b1 <stat>:
 80482b1:	55                   	push   %ebp
 80482b2:	89 e5                	mov    %esp,%ebp
 80482b4:	53                   	push   %ebx
 80482b5:	83 ec 10             	sub    $0x10,%esp
 80482b8:	b8 12 00 00 00       	mov    $0x12,%eax
 80482bd:	8b 55 08             	mov    0x8(%ebp),%edx
 80482c0:	8b 4d 0c             	mov    0xc(%ebp),%ecx
 80482c3:	89 d3                	mov    %edx,%ebx
 80482c5:	cd 80                	int    $0x80
 80482c7:	89 45 f8             	mov    %eax,-0x8(%ebp)
 80482ca:	8b 45 f8             	mov    -0x8(%ebp),%eax
 80482cd:	83 c4 10             	add    $0x10,%esp
 80482d0:	5b                   	pop    %ebx
 80482d1:	5d                   	pop    %ebp
 80482d2:	c3                   	ret    

080482d3 <execv>:
 80482d3:	55                   	push   %ebp
 80482d4:	89 e5                	mov    %esp,%ebp
 80482d6:	53                   	push   %ebx
 80482d7:	83 ec 10             	sub    $0x10,%esp
 80482da:	b8 11 00 00 00       	mov    $0x11,%eax
 80482df:	8b 55 08             	mov    0x8(%ebp),%edx
 80482e2:	8b 4d 0c             	mov    0xc(%ebp),%ecx
 80482e5:	89 d3                	mov    %edx,%ebx
 80482e7:	cd 80                	int    $0x80
 80482e9:	89 45 f8             	mov    %eax,-0x8(%ebp)
 80482ec:	8b 45 f8             	mov    -0x8(%ebp),%eax
 80482ef:	83 c4 10             	add    $0x10,%esp
 80482f2:	5b                   	pop    %ebx
 80482f3:	5d                   	pop    %ebp
 80482f4:	c3                   	ret    

080482f5 <sprintf>:
 80482f5:	55                   	push   %ebp
 80482f6:	89 e5                	mov    %esp,%ebp
 80482f8:	83 ec 28             	sub    $0x28,%esp
 80482fb:	8d 45 0c             	lea    0xc(%ebp),%eax
 80482fe:	83 c0 04             	add    $0x4,%eax
 8048301:	89 45 f4             	mov    %eax,-0xc(%ebp)
 8048304:	8b 45 0c             	mov    0xc(%ebp),%eax
 8048307:	8b 55 f4             	mov    -0xc(%ebp),%edx
 804830a:	89 54 24 08          	mov    %edx,0x8(%esp)
 804830e:	89 44 24 04          	mov    %eax,0x4(%esp)
 8048312:	8b 45 08             	mov    0x8(%ebp),%eax
 8048315:	89 04 24             	mov    %eax,(%esp)
 8048318:	e8 13 06 00 00       	call   8048930 <vsprintf>
 804831d:	c9                   	leave  
 804831e:	c3                   	ret    

0804831f <memset>:
 804831f:	55                   	push   %ebp
 8048320:	89 e5                	mov    %esp,%ebp
 8048322:	83 ec 38             	sub    $0x38,%esp
 8048325:	8b 45 0c             	mov    0xc(%ebp),%eax
 8048328:	88 45 e4             	mov    %al,-0x1c(%ebp)
 804832b:	83 7d 08 00          	cmpl   $0x0,0x8(%ebp)
 804832f:	75 24                	jne    8048355 <memset+0x36>
 8048331:	c7 44 24 0c 3c 8c 04 	movl   $0x8048c3c,0xc(%esp)
 8048338:	08 
 8048339:	c7 44 24 08 f5 8c 04 	movl   $0x8048cf5,0x8(%esp)
 8048340:	08 
 8048341:	c7 44 24 04 05 00 00 	movl   $0x5,0x4(%esp)
 8048348:	00 
 8048349:	c7 04 24 56 8c 04 08 	movl   $0x8048c56,(%esp)
 8048350:	e8 ea 06 00 00       	call   8048a3f <panic_spin>
 8048355:	8b 45 08             	mov    0x8(%ebp),%eax
 8048358:	89 45 f4             	mov    %eax,-0xc(%ebp)
 804835b:	eb 0f                	jmp    804836c <memset+0x4d>
 804835d:	8b 45 f4             	mov    -0xc(%ebp),%eax
 8048360:	8d 50 01             	lea    0x1(%eax),%edx
 8048363:	89 55 f4             	mov    %edx,-0xc(%ebp)
 8048366:	0f b6 55 e4          	movzbl -0x1c(%ebp),%edx
 804836a:	88 10                	mov    %dl,(%eax)
 804836c:	8b 45 10             	mov    0x10(%ebp),%eax
 804836f:	8d 50 ff             	lea    -0x1(%eax),%edx
 8048372:	89 55 10             	mov    %edx,0x10(%ebp)
 8048375:	85 c0                	test   %eax,%eax
 8048377:	75 e4                	jne    804835d <memset+0x3e>
 8048379:	c9                   	leave  
 804837a:	c3                   	ret    

0804837b <memcpy>:
 804837b:	55                   	push   %ebp
 804837c:	89 e5                	mov    %esp,%ebp
 804837e:	83 ec 28             	sub    $0x28,%esp
 8048381:	83 7d 08 00          	cmpl   $0x0,0x8(%ebp)
 8048385:	74 06                	je     804838d <memcpy+0x12>
 8048387:	83 7d 0c 00          	cmpl   $0x0,0xc(%ebp)
 804838b:	75 24                	jne    80483b1 <memcpy+0x36>
 804838d:	c7 44 24 0c 60 8c 04 	movl   $0x8048c60,0xc(%esp)
 8048394:	08 
 8048395:	c7 44 24 08 fc 8c 04 	movl   $0x8048cfc,0x8(%esp)
 804839c:	08 
 804839d:	c7 44 24 04 0d 00 00 	movl   $0xd,0x4(%esp)
 80483a4:	00 
 80483a5:	c7 04 24 56 8c 04 08 	movl   $0x8048c56,(%esp)
 80483ac:	e8 8e 06 00 00       	call   8048a3f <panic_spin>
 80483b1:	8b 45 08             	mov    0x8(%ebp),%eax
 80483b4:	89 45 f4             	mov    %eax,-0xc(%ebp)
 80483b7:	8b 45 0c             	mov    0xc(%ebp),%eax
 80483ba:	89 45 f0             	mov    %eax,-0x10(%ebp)
 80483bd:	eb 17                	jmp    80483d6 <memcpy+0x5b>
 80483bf:	8b 45 f4             	mov    -0xc(%ebp),%eax
 80483c2:	8d 50 01             	lea    0x1(%eax),%edx
 80483c5:	89 55 f4             	mov    %edx,-0xc(%ebp)
 80483c8:	8b 55 f0             	mov    -0x10(%ebp),%edx
 80483cb:	8d 4a 01             	lea    0x1(%edx),%ecx
 80483ce:	89 4d f0             	mov    %ecx,-0x10(%ebp)
 80483d1:	0f b6 12             	movzbl (%edx),%edx
 80483d4:	88 10                	mov    %dl,(%eax)
 80483d6:	8b 45 10             	mov    0x10(%ebp),%eax
 80483d9:	8d 50 ff             	lea    -0x1(%eax),%edx
 80483dc:	89 55 10             	mov    %edx,0x10(%ebp)
 80483df:	85 c0                	test   %eax,%eax
 80483e1:	75 dc                	jne    80483bf <memcpy+0x44>
 80483e3:	c9                   	leave  
 80483e4:	c3                   	ret    

080483e5 <memcmp>:
 80483e5:	55                   	push   %ebp
 80483e6:	89 e5                	mov    %esp,%ebp
 80483e8:	83 ec 28             	sub    $0x28,%esp
 80483eb:	83 7d 08 00          	cmpl   $0x0,0x8(%ebp)
 80483ef:	74 06                	je     80483f7 <memcmp+0x12>
 80483f1:	83 7d 0c 00          	cmpl   $0x0,0xc(%ebp)
 80483f5:	75 24                	jne    804841b <memcmp+0x36>
 80483f7:	c7 44 24 0c 8c 8c 04 	movl   $0x8048c8c,0xc(%esp)
 80483fe:	08 
 80483ff:	c7 44 24 08 03 8d 04 	movl   $0x8048d03,0x8(%esp)
 8048406:	08 
 8048407:	c7 44 24 04 15 00 00 	movl   $0x15,0x4(%esp)
 804840e:	00 
 804840f:	c7 04 24 56 8c 04 08 	movl   $0x8048c56,(%esp)
 8048416:	e8 24 06 00 00       	call   8048a3f <panic_spin>
 804841b:	8b 45 08             	mov    0x8(%ebp),%eax
 804841e:	89 45 f4             	mov    %eax,-0xc(%ebp)
 8048421:	8b 45 0c             	mov    0xc(%ebp),%eax
 8048424:	89 45 f0             	mov    %eax,-0x10(%ebp)
 8048427:	eb 36                	jmp    804845f <memcmp+0x7a>
 8048429:	8b 45 f4             	mov    -0xc(%ebp),%eax
 804842c:	0f b6 10             	movzbl (%eax),%edx
 804842f:	8b 45 f0             	mov    -0x10(%ebp),%eax
 8048432:	0f b6 00             	movzbl (%eax),%eax
 8048435:	38 c2                	cmp    %al,%dl
 8048437:	74 1e                	je     8048457 <memcmp+0x72>
 8048439:	8b 45 f4             	mov    -0xc(%ebp),%eax
 804843c:	0f b6 10             	movzbl (%eax),%edx
 804843f:	8b 45 f0             	mov    -0x10(%ebp),%eax
 8048442:	0f b6 00             	movzbl (%eax),%eax
 8048445:	38 c2                	cmp    %al,%dl
 8048447:	7e 07                	jle    8048450 <memcmp+0x6b>
 8048449:	b8 01 00 00 00       	mov    $0x1,%eax
 804844e:	eb 05                	jmp    8048455 <memcmp+0x70>
 8048450:	b8 ff ff ff ff       	mov    $0xffffffff,%eax
 8048455:	eb 1a                	jmp    8048471 <memcmp+0x8c>
 8048457:	83 45 f4 01          	addl   $0x1,-0xc(%ebp)
 804845b:	83 45 f0 01          	addl   $0x1,-0x10(%ebp)
 804845f:	8b 45 10             	mov    0x10(%ebp),%eax
 8048462:	8d 50 ff             	lea    -0x1(%eax),%edx
 8048465:	89 55 10             	mov    %edx,0x10(%ebp)
 8048468:	85 c0                	test   %eax,%eax
 804846a:	75 bd                	jne    8048429 <memcmp+0x44>
 804846c:	b8 00 00 00 00       	mov    $0x0,%eax
 8048471:	c9                   	leave  
 8048472:	c3                   	ret    

08048473 <strcpy>:
 8048473:	55                   	push   %ebp
 8048474:	89 e5                	mov    %esp,%ebp
 8048476:	83 ec 28             	sub    $0x28,%esp
 8048479:	83 7d 08 00          	cmpl   $0x0,0x8(%ebp)
 804847d:	74 06                	je     8048485 <strcpy+0x12>
 804847f:	83 7d 0c 00          	cmpl   $0x0,0xc(%ebp)
 8048483:	75 24                	jne    80484a9 <strcpy+0x36>
 8048485:	c7 44 24 0c b0 8c 04 	movl   $0x8048cb0,0xc(%esp)
 804848c:	08 
 804848d:	c7 44 24 08 0a 8d 04 	movl   $0x8048d0a,0x8(%esp)
 8048494:	08 
 8048495:	c7 44 24 04 22 00 00 	movl   $0x22,0x4(%esp)
 804849c:	00 
 804849d:	c7 04 24 56 8c 04 08 	movl   $0x8048c56,(%esp)
 80484a4:	e8 96 05 00 00       	call   8048a3f <panic_spin>
 80484a9:	8b 45 08             	mov    0x8(%ebp),%eax
 80484ac:	89 45 f4             	mov    %eax,-0xc(%ebp)
 80484af:	90                   	nop
 80484b0:	8b 45 08             	mov    0x8(%ebp),%eax
 80484b3:	8d 50 01             	lea    0x1(%eax),%edx
 80484b6:	89 55 08             	mov    %edx,0x8(%ebp)
 80484b9:	8b 55 0c             	mov    0xc(%ebp),%edx
 80484bc:	8d 4a 01             	lea    0x1(%edx),%ecx
 80484bf:	89 4d 0c             	mov    %ecx,0xc(%ebp)
 80484c2:	0f b6 12             	movzbl (%edx),%edx
 80484c5:	88 10                	mov    %dl,(%eax)
 80484c7:	0f b6 00             	movzbl (%eax),%eax
 80484ca:	84 c0                	test   %al,%al
 80484cc:	75 e2                	jne    80484b0 <strcpy+0x3d>
 80484ce:	8b 45 f4             	mov    -0xc(%ebp),%eax
 80484d1:	c9                   	leave  
 80484d2:	c3                   	ret    

080484d3 <strlen>:
 80484d3:	55                   	push   %ebp
 80484d4:	89 e5                	mov    %esp,%ebp
 80484d6:	83 ec 28             	sub    $0x28,%esp
 80484d9:	83 7d 08 00          	cmpl   $0x0,0x8(%ebp)
 80484dd:	75 24                	jne    8048503 <strlen+0x30>
 80484df:	c7 44 24 0c cc 8c 04 	movl   $0x8048ccc,0xc(%esp)
 80484e6:	08 
 80484e7:	c7 44 24 08 11 8d 04 	movl   $0x8048d11,0x8(%esp)
 80484ee:	08 
 80484ef:	c7 44 24 04 29 00 00 	movl   $0x29,0x4(%esp)
 80484f6:	00 
 80484f7:	c7 04 24 56 8c 04 08 	movl   $0x8048c56,(%esp)
 80484fe:	e8 3c 05 00 00       	call   8048a3f <panic_spin>
 8048503:	8b 45 08             	mov    0x8(%ebp),%eax
 8048506:	89 45 f4             	mov    %eax,-0xc(%ebp)
 8048509:	90                   	nop
 804850a:	8b 45 f4             	mov    -0xc(%ebp),%eax
 804850d:	8d 50 01             	lea    0x1(%eax),%edx
 8048510:	89 55 f4             	mov    %edx,-0xc(%ebp)
 8048513:	0f b6 00             	movzbl (%eax),%eax
 8048516:	84 c0                	test   %al,%al
 8048518:	75 f0                	jne    804850a <strlen+0x37>
 804851a:	8b 55 f4             	mov    -0xc(%ebp),%edx
 804851d:	8b 45 08             	mov    0x8(%ebp),%eax
 8048520:	29 c2                	sub    %eax,%edx
 8048522:	89 d0                	mov    %edx,%eax
 8048524:	83 e8 01             	sub    $0x1,%eax
 8048527:	c9                   	leave  
 8048528:	c3                   	ret    

08048529 <strcmp>:
 8048529:	55                   	push   %ebp
 804852a:	89 e5                	mov    %esp,%ebp
 804852c:	83 ec 18             	sub    $0x18,%esp
 804852f:	83 7d 08 00          	cmpl   $0x0,0x8(%ebp)
 8048533:	74 06                	je     804853b <strcmp+0x12>
 8048535:	83 7d 0c 00          	cmpl   $0x0,0xc(%ebp)
 8048539:	75 26                	jne    8048561 <strcmp+0x38>
 804853b:	c7 44 24 0c d8 8c 04 	movl   $0x8048cd8,0xc(%esp)
 8048542:	08 
 8048543:	c7 44 24 08 18 8d 04 	movl   $0x8048d18,0x8(%esp)
 804854a:	08 
 804854b:	c7 44 24 04 30 00 00 	movl   $0x30,0x4(%esp)
 8048552:	00 
 8048553:	c7 04 24 56 8c 04 08 	movl   $0x8048c56,(%esp)
 804855a:	e8 e0 04 00 00       	call   8048a3f <panic_spin>
 804855f:	eb 0a                	jmp    804856b <strcmp+0x42>
 8048561:	eb 08                	jmp    804856b <strcmp+0x42>
 8048563:	83 45 08 01          	addl   $0x1,0x8(%ebp)
 8048567:	83 45 0c 01          	addl   $0x1,0xc(%ebp)
 804856b:	8b 45 08             	mov    0x8(%ebp),%eax
 804856e:	0f b6 00             	movzbl (%eax),%eax
 8048571:	84 c0                	test   %al,%al
 8048573:	74 10                	je     8048585 <strcmp+0x5c>
 8048575:	8b 45 08             	mov    0x8(%ebp),%eax
 8048578:	0f b6 10             	movzbl (%eax),%edx
 804857b:	8b 45 0c             	mov    0xc(%ebp),%eax
 804857e:	0f b6 00             	movzbl (%eax),%eax
 8048581:	38 c2                	cmp    %al,%dl
 8048583:	74 de                	je     8048563 <strcmp+0x3a>
 8048585:	8b 45 08             	mov    0x8(%ebp),%eax
 8048588:	0f b6 10             	movzbl (%eax),%edx
 804858b:	8b 45 0c             	mov    0xc(%ebp),%eax
 804858e:	0f b6 00             	movzbl (%eax),%eax
 8048591:	38 c2                	cmp    %al,%dl
 8048593:	7c 13                	jl     80485a8 <strcmp+0x7f>
 8048595:	8b 45 08             	mov    0x8(%ebp),%eax
 8048598:	0f b6 10             	movzbl (%eax),%edx
 804859b:	8b 45 0c             	mov    0xc(%ebp),%eax
 804859e:	0f b6 00             	movzbl (%eax),%eax
 80485a1:	38 c2                	cmp    %al,%dl
 80485a3:	0f 9f c0             	setg   %al
 80485a6:	eb 05                	jmp    80485ad <strcmp+0x84>
 80485a8:	b8 ff ff ff ff       	mov    $0xffffffff,%eax
 80485ad:	c9                   	leave  
 80485ae:	c3                   	ret    

080485af <strchr>:
 80485af:	55                   	push   %ebp
 80485b0:	89 e5                	mov    %esp,%ebp
 80485b2:	83 ec 28             	sub    $0x28,%esp
 80485b5:	8b 45 0c             	mov    0xc(%ebp),%eax
 80485b8:	88 45 f4             	mov    %al,-0xc(%ebp)
 80485bb:	83 7d 08 00          	cmpl   $0x0,0x8(%ebp)
 80485bf:	75 26                	jne    80485e7 <strchr+0x38>
 80485c1:	c7 44 24 0c cc 8c 04 	movl   $0x8048ccc,0xc(%esp)
 80485c8:	08 
 80485c9:	c7 44 24 08 1f 8d 04 	movl   $0x8048d1f,0x8(%esp)
 80485d0:	08 
 80485d1:	c7 44 24 04 38 00 00 	movl   $0x38,0x4(%esp)
 80485d8:	00 
 80485d9:	c7 04 24 56 8c 04 08 	movl   $0x8048c56,(%esp)
 80485e0:	e8 5a 04 00 00       	call   8048a3f <panic_spin>
 80485e5:	eb 1c                	jmp    8048603 <strchr+0x54>
 80485e7:	eb 1a                	jmp    8048603 <strchr+0x54>
 80485e9:	8b 45 08             	mov    0x8(%ebp),%eax
 80485ec:	0f b6 00             	movzbl (%eax),%eax
 80485ef:	0f be d0             	movsbl %al,%edx
 80485f2:	0f b6 45 f4          	movzbl -0xc(%ebp),%eax
 80485f6:	39 c2                	cmp    %eax,%edx
 80485f8:	75 05                	jne    80485ff <strchr+0x50>
 80485fa:	8b 45 08             	mov    0x8(%ebp),%eax
 80485fd:	eb 13                	jmp    8048612 <strchr+0x63>
 80485ff:	83 45 08 01          	addl   $0x1,0x8(%ebp)
 8048603:	8b 45 08             	mov    0x8(%ebp),%eax
 8048606:	0f b6 00             	movzbl (%eax),%eax
 8048609:	84 c0                	test   %al,%al
 804860b:	75 dc                	jne    80485e9 <strchr+0x3a>
 804860d:	b8 00 00 00 00       	mov    $0x0,%eax
 8048612:	c9                   	leave  
 8048613:	c3                   	ret    

08048614 <strrchr>:
 8048614:	55                   	push   %ebp
 8048615:	89 e5                	mov    %esp,%ebp
 8048617:	83 ec 38             	sub    $0x38,%esp
 804861a:	8b 45 0c             	mov    0xc(%ebp),%eax
 804861d:	88 45 e4             	mov    %al,-0x1c(%ebp)
 8048620:	83 7d 08 00          	cmpl   $0x0,0x8(%ebp)
 8048624:	75 24                	jne    804864a <strrchr+0x36>
 8048626:	c7 44 24 0c cc 8c 04 	movl   $0x8048ccc,0xc(%esp)
 804862d:	08 
 804862e:	c7 44 24 08 26 8d 04 	movl   $0x8048d26,0x8(%esp)
 8048635:	08 
 8048636:	c7 44 24 04 42 00 00 	movl   $0x42,0x4(%esp)
 804863d:	00 
 804863e:	c7 04 24 56 8c 04 08 	movl   $0x8048c56,(%esp)
 8048645:	e8 f5 03 00 00       	call   8048a3f <panic_spin>
 804864a:	c7 45 f4 00 00 00 00 	movl   $0x0,-0xc(%ebp)
 8048651:	eb 1b                	jmp    804866e <strrchr+0x5a>
 8048653:	8b 45 08             	mov    0x8(%ebp),%eax
 8048656:	0f b6 00             	movzbl (%eax),%eax
 8048659:	0f be d0             	movsbl %al,%edx
 804865c:	0f b6 45 e4          	movzbl -0x1c(%ebp),%eax
 8048660:	39 c2                	cmp    %eax,%edx
 8048662:	75 06                	jne    804866a <strrchr+0x56>
 8048664:	8b 45 08             	mov    0x8(%ebp),%eax
 8048667:	89 45 f4             	mov    %eax,-0xc(%ebp)
 804866a:	83 45 08 01          	addl   $0x1,0x8(%ebp)
 804866e:	8b 45 08             	mov    0x8(%ebp),%eax
 8048671:	0f b6 00             	movzbl (%eax),%eax
 8048674:	84 c0                	test   %al,%al
 8048676:	75 db                	jne    8048653 <strrchr+0x3f>
 8048678:	8b 45 f4             	mov    -0xc(%ebp),%eax
 804867b:	c9                   	leave  
 804867c:	c3                   	ret    

0804867d <strcat>:
 804867d:	55                   	push   %ebp
 804867e:	89 e5                	mov    %esp,%ebp
 8048680:	83 ec 28             	sub    $0x28,%esp
 8048683:	83 7d 08 00          	cmpl   $0x0,0x8(%ebp)
 8048687:	74 06                	je     804868f <strcat+0x12>
 8048689:	83 7d 0c 00          	cmpl   $0x0,0xc(%ebp)
 804868d:	75 24                	jne    80486b3 <strcat+0x36>
 804868f:	c7 44 24 0c b0 8c 04 	movl   $0x8048cb0,0xc(%esp)
 8048696:	08 
 8048697:	c7 44 24 08 2e 8d 04 	movl   $0x8048d2e,0x8(%esp)
 804869e:	08 
 804869f:	c7 44 24 04 4d 00 00 	movl   $0x4d,0x4(%esp)
 80486a6:	00 
 80486a7:	c7 04 24 56 8c 04 08 	movl   $0x8048c56,(%esp)
 80486ae:	e8 8c 03 00 00       	call   8048a3f <panic_spin>
 80486b3:	8b 45 08             	mov    0x8(%ebp),%eax
 80486b6:	89 45 f4             	mov    %eax,-0xc(%ebp)
 80486b9:	eb 04                	jmp    80486bf <strcat+0x42>
 80486bb:	83 45 f4 01          	addl   $0x1,-0xc(%ebp)
 80486bf:	8b 45 f4             	mov    -0xc(%ebp),%eax
 80486c2:	0f b6 00             	movzbl (%eax),%eax
 80486c5:	84 c0                	test   %al,%al
 80486c7:	75 f2                	jne    80486bb <strcat+0x3e>
 80486c9:	90                   	nop
 80486ca:	8b 45 f4             	mov    -0xc(%ebp),%eax
 80486cd:	8d 50 01             	lea    0x1(%eax),%edx
 80486d0:	89 55 f4             	mov    %edx,-0xc(%ebp)
 80486d3:	8b 55 0c             	mov    0xc(%ebp),%edx
 80486d6:	8d 4a 01             	lea    0x1(%edx),%ecx
 80486d9:	89 4d 0c             	mov    %ecx,0xc(%ebp)
 80486dc:	0f b6 12             	movzbl (%edx),%edx
 80486df:	88 10                	mov    %dl,(%eax)
 80486e1:	0f b6 00             	movzbl (%eax),%eax
 80486e4:	84 c0                	test   %al,%al
 80486e6:	75 e2                	jne    80486ca <strcat+0x4d>
 80486e8:	8b 45 f4             	mov    -0xc(%ebp),%eax
 80486eb:	c9                   	leave  
 80486ec:	c3                   	ret    

080486ed <strchrs>:
 80486ed:	55                   	push   %ebp
 80486ee:	89 e5                	mov    %esp,%ebp
 80486f0:	83 ec 38             	sub    $0x38,%esp
 80486f3:	8b 45 0c             	mov    0xc(%ebp),%eax
 80486f6:	88 45 e4             	mov    %al,-0x1c(%ebp)
 80486f9:	83 7d 08 00          	cmpl   $0x0,0x8(%ebp)
 80486fd:	75 24                	jne    8048723 <strchrs+0x36>
 80486ff:	c7 44 24 0c cc 8c 04 	movl   $0x8048ccc,0xc(%esp)
 8048706:	08 
 8048707:	c7 44 24 08 35 8d 04 	movl   $0x8048d35,0x8(%esp)
 804870e:	08 
 804870f:	c7 44 24 04 56 00 00 	movl   $0x56,0x4(%esp)
 8048716:	00 
 8048717:	c7 04 24 56 8c 04 08 	movl   $0x8048c56,(%esp)
 804871e:	e8 1c 03 00 00       	call   8048a3f <panic_spin>
 8048723:	c7 45 f4 00 00 00 00 	movl   $0x0,-0xc(%ebp)
 804872a:	8b 45 08             	mov    0x8(%ebp),%eax
 804872d:	89 45 f0             	mov    %eax,-0x10(%ebp)
 8048730:	eb 19                	jmp    804874b <strchrs+0x5e>
 8048732:	8b 45 f0             	mov    -0x10(%ebp),%eax
 8048735:	0f b6 00             	movzbl (%eax),%eax
 8048738:	0f be d0             	movsbl %al,%edx
 804873b:	0f b6 45 e4          	movzbl -0x1c(%ebp),%eax
 804873f:	39 c2                	cmp    %eax,%edx
 8048741:	75 04                	jne    8048747 <strchrs+0x5a>
 8048743:	83 45 f4 01          	addl   $0x1,-0xc(%ebp)
 8048747:	83 45 f0 01          	addl   $0x1,-0x10(%ebp)
 804874b:	8b 45 f0             	mov    -0x10(%ebp),%eax
 804874e:	0f b6 00             	movzbl (%eax),%eax
 8048751:	84 c0                	test   %al,%al
 8048753:	75 dd                	jne    8048732 <strchrs+0x45>
 8048755:	8b 45 f4             	mov    -0xc(%ebp),%eax
 8048758:	c9                   	leave  
 8048759:	c3                   	ret    

0804875a <printf>:
 804875a:	55                   	push   %ebp
 804875b:	89 e5                	mov    %esp,%ebp
 804875d:	57                   	push   %edi
 804875e:	53                   	push   %ebx
 804875f:	81 ec 20 04 00 00    	sub    $0x420,%esp
 8048765:	8d 9d f4 fb ff ff    	lea    -0x40c(%ebp),%ebx
 804876b:	b8 00 00 00 00       	mov    $0x0,%eax
 8048770:	ba 00 01 00 00       	mov    $0x100,%edx
 8048775:	89 df                	mov    %ebx,%edi
 8048777:	89 d1                	mov    %edx,%ecx
 8048779:	f3 ab                	rep stos %eax,%es:(%edi)
 804877b:	c6 85 58 fc ff ff 54 	movb   $0x54,-0x3a8(%ebp)
 8048782:	8d 45 0c             	lea    0xc(%ebp),%eax
 8048785:	89 45 f4             	mov    %eax,-0xc(%ebp)
 8048788:	8b 45 08             	mov    0x8(%ebp),%eax
 804878b:	8b 55 f4             	mov    -0xc(%ebp),%edx
 804878e:	89 54 24 08          	mov    %edx,0x8(%esp)
 8048792:	89 44 24 04          	mov    %eax,0x4(%esp)
 8048796:	8d 85 f4 fb ff ff    	lea    -0x40c(%ebp),%eax
 804879c:	89 04 24             	mov    %eax,(%esp)
 804879f:	e8 8c 01 00 00       	call   8048930 <vsprintf>
 80487a4:	8d 85 f4 fb ff ff    	lea    -0x40c(%ebp),%eax
 80487aa:	89 04 24             	mov    %eax,(%esp)
 80487ad:	e8 21 fd ff ff       	call   80484d3 <strlen>
 80487b2:	89 44 24 08          	mov    %eax,0x8(%esp)
 80487b6:	8d 85 f4 fb ff ff    	lea    -0x40c(%ebp),%eax
 80487bc:	89 44 24 04          	mov    %eax,0x4(%esp)
 80487c0:	c7 04 24 01 00 00 00 	movl   $0x1,(%esp)
 80487c7:	e8 bc f9 ff ff       	call   8048188 <write>
 80487cc:	81 c4 20 04 00 00    	add    $0x420,%esp
 80487d2:	5b                   	pop    %ebx
 80487d3:	5f                   	pop    %edi
 80487d4:	5d                   	pop    %ebp
 80487d5:	c3                   	ret    

080487d6 <to_num>:
 80487d6:	55                   	push   %ebp
 80487d7:	89 e5                	mov    %esp,%ebp
 80487d9:	53                   	push   %ebx
 80487da:	81 ec 14 04 00 00    	sub    $0x414,%esp
 80487e0:	8b 45 10             	mov    0x10(%ebp),%eax
 80487e3:	88 85 e8 fb ff ff    	mov    %al,-0x418(%ebp)
 80487e9:	8d 85 ef fb ff ff    	lea    -0x411(%ebp),%eax
 80487ef:	83 c0 01             	add    $0x1,%eax
 80487f2:	89 45 f8             	mov    %eax,-0x8(%ebp)
 80487f5:	80 bd e8 fb ff ff 64 	cmpb   $0x64,-0x418(%ebp)
 80487fc:	0f 85 a0 00 00 00    	jne    80488a2 <to_num+0xcc>
 8048802:	8b 45 08             	mov    0x8(%ebp),%eax
 8048805:	85 c0                	test   %eax,%eax
 8048807:	79 16                	jns    804881f <to_num+0x49>
 8048809:	8b 45 08             	mov    0x8(%ebp),%eax
 804880c:	f7 d8                	neg    %eax
 804880e:	89 45 08             	mov    %eax,0x8(%ebp)
 8048811:	8b 45 0c             	mov    0xc(%ebp),%eax
 8048814:	8d 50 01             	lea    0x1(%eax),%edx
 8048817:	89 55 0c             	mov    %edx,0xc(%ebp)
 804881a:	c6 00 2d             	movb   $0x2d,(%eax)
 804881d:	eb 52                	jmp    8048871 <to_num+0x9b>
 804881f:	eb 50                	jmp    8048871 <to_num+0x9b>
 8048821:	8b 5d f8             	mov    -0x8(%ebp),%ebx
 8048824:	8d 43 01             	lea    0x1(%ebx),%eax
 8048827:	89 45 f8             	mov    %eax,-0x8(%ebp)
 804882a:	8b 4d 08             	mov    0x8(%ebp),%ecx
 804882d:	ba 67 66 66 66       	mov    $0x66666667,%edx
 8048832:	89 c8                	mov    %ecx,%eax
 8048834:	f7 ea                	imul   %edx
 8048836:	c1 fa 02             	sar    $0x2,%edx
 8048839:	89 c8                	mov    %ecx,%eax
 804883b:	c1 f8 1f             	sar    $0x1f,%eax
 804883e:	29 c2                	sub    %eax,%edx
 8048840:	89 d0                	mov    %edx,%eax
 8048842:	c1 e0 02             	shl    $0x2,%eax
 8048845:	01 d0                	add    %edx,%eax
 8048847:	01 c0                	add    %eax,%eax
 8048849:	29 c1                	sub    %eax,%ecx
 804884b:	89 ca                	mov    %ecx,%edx
 804884d:	0f b6 82 3d 8d 04 08 	movzbl 0x8048d3d(%edx),%eax
 8048854:	88 03                	mov    %al,(%ebx)
 8048856:	8b 4d 08             	mov    0x8(%ebp),%ecx
 8048859:	ba 67 66 66 66       	mov    $0x66666667,%edx
 804885e:	89 c8                	mov    %ecx,%eax
 8048860:	f7 ea                	imul   %edx
 8048862:	c1 fa 02             	sar    $0x2,%edx
 8048865:	89 c8                	mov    %ecx,%eax
 8048867:	c1 f8 1f             	sar    $0x1f,%eax
 804886a:	29 c2                	sub    %eax,%edx
 804886c:	89 d0                	mov    %edx,%eax
 804886e:	89 45 08             	mov    %eax,0x8(%ebp)
 8048871:	8b 45 08             	mov    0x8(%ebp),%eax
 8048874:	85 c0                	test   %eax,%eax
 8048876:	75 a9                	jne    8048821 <to_num+0x4b>
 8048878:	83 6d f8 01          	subl   $0x1,-0x8(%ebp)
 804887c:	eb 17                	jmp    8048895 <to_num+0xbf>
 804887e:	8b 45 0c             	mov    0xc(%ebp),%eax
 8048881:	8d 50 01             	lea    0x1(%eax),%edx
 8048884:	89 55 0c             	mov    %edx,0xc(%ebp)
 8048887:	8b 55 f8             	mov    -0x8(%ebp),%edx
 804888a:	8d 4a ff             	lea    -0x1(%edx),%ecx
 804888d:	89 4d f8             	mov    %ecx,-0x8(%ebp)
 8048890:	0f b6 12             	movzbl (%edx),%edx
 8048893:	88 10                	mov    %dl,(%eax)
 8048895:	8d 85 ef fb ff ff    	lea    -0x411(%ebp),%eax
 804889b:	39 45 f8             	cmp    %eax,-0x8(%ebp)
 804889e:	75 de                	jne    804887e <to_num+0xa8>
 80488a0:	eb 7f                	jmp    8048921 <to_num+0x14b>
 80488a2:	80 bd e8 fb ff ff 68 	cmpb   $0x68,-0x418(%ebp)
 80488a9:	75 76                	jne    8048921 <to_num+0x14b>
 80488ab:	8b 45 0c             	mov    0xc(%ebp),%eax
 80488ae:	8d 50 01             	lea    0x1(%eax),%edx
 80488b1:	89 55 0c             	mov    %edx,0xc(%ebp)
 80488b4:	c6 00 30             	movb   $0x30,(%eax)
 80488b7:	8b 45 0c             	mov    0xc(%ebp),%eax
 80488ba:	8d 50 01             	lea    0x1(%eax),%edx
 80488bd:	89 55 0c             	mov    %edx,0xc(%ebp)
 80488c0:	c6 00 78             	movb   $0x78,(%eax)
 80488c3:	8d 45 0b             	lea    0xb(%ebp),%eax
 80488c6:	89 45 f4             	mov    %eax,-0xc(%ebp)
 80488c9:	c7 45 f0 04 00 00 00 	movl   $0x4,-0x10(%ebp)
 80488d0:	eb 42                	jmp    8048914 <to_num+0x13e>
 80488d2:	8b 45 f4             	mov    -0xc(%ebp),%eax
 80488d5:	0f b6 00             	movzbl (%eax),%eax
 80488d8:	88 45 ef             	mov    %al,-0x11(%ebp)
 80488db:	8b 45 0c             	mov    0xc(%ebp),%eax
 80488de:	8d 50 01             	lea    0x1(%eax),%edx
 80488e1:	89 55 0c             	mov    %edx,0xc(%ebp)
 80488e4:	0f b6 55 ef          	movzbl -0x11(%ebp),%edx
 80488e8:	c0 ea 04             	shr    $0x4,%dl
 80488eb:	0f b6 d2             	movzbl %dl,%edx
 80488ee:	0f b6 92 3d 8d 04 08 	movzbl 0x8048d3d(%edx),%edx
 80488f5:	88 10                	mov    %dl,(%eax)
 80488f7:	8b 45 0c             	mov    0xc(%ebp),%eax
 80488fa:	8d 50 01             	lea    0x1(%eax),%edx
 80488fd:	89 55 0c             	mov    %edx,0xc(%ebp)
 8048900:	0f b6 55 ef          	movzbl -0x11(%ebp),%edx
 8048904:	83 e2 0f             	and    $0xf,%edx
 8048907:	0f b6 92 3d 8d 04 08 	movzbl 0x8048d3d(%edx),%edx
 804890e:	88 10                	mov    %dl,(%eax)
 8048910:	83 6d f4 01          	subl   $0x1,-0xc(%ebp)
 8048914:	8b 45 f0             	mov    -0x10(%ebp),%eax
 8048917:	8d 50 ff             	lea    -0x1(%eax),%edx
 804891a:	89 55 f0             	mov    %edx,-0x10(%ebp)
 804891d:	85 c0                	test   %eax,%eax
 804891f:	75 b1                	jne    80488d2 <to_num+0xfc>
 8048921:	8b 45 0c             	mov    0xc(%ebp),%eax
 8048924:	c6 00 00             	movb   $0x0,(%eax)
 8048927:	81 c4 14 04 00 00    	add    $0x414,%esp
 804892d:	5b                   	pop    %ebx
 804892e:	5d                   	pop    %ebp
 804892f:	c3                   	ret    

08048930 <vsprintf>:
 8048930:	55                   	push   %ebp
 8048931:	89 e5                	mov    %esp,%ebp
 8048933:	83 ec 1c             	sub    $0x1c,%esp
 8048936:	8b 45 08             	mov    0x8(%ebp),%eax
 8048939:	89 45 fc             	mov    %eax,-0x4(%ebp)
 804893c:	e9 ee 00 00 00       	jmp    8048a2f <vsprintf+0xff>
 8048941:	8b 45 0c             	mov    0xc(%ebp),%eax
 8048944:	0f b6 00             	movzbl (%eax),%eax
 8048947:	3c 25                	cmp    $0x25,%al
 8048949:	74 22                	je     804896d <vsprintf+0x3d>
 804894b:	8b 45 fc             	mov    -0x4(%ebp),%eax
 804894e:	8d 50 01             	lea    0x1(%eax),%edx
 8048951:	89 55 fc             	mov    %edx,-0x4(%ebp)
 8048954:	8b 55 0c             	mov    0xc(%ebp),%edx
 8048957:	8d 4a 01             	lea    0x1(%edx),%ecx
 804895a:	89 4d 0c             	mov    %ecx,0xc(%ebp)
 804895d:	0f b6 12             	movzbl (%edx),%edx
 8048960:	88 10                	mov    %dl,(%eax)
 8048962:	8b 45 fc             	mov    -0x4(%ebp),%eax
 8048965:	c6 00 00             	movb   $0x0,(%eax)
 8048968:	e9 c2 00 00 00       	jmp    8048a2f <vsprintf+0xff>
 804896d:	83 45 0c 01          	addl   $0x1,0xc(%ebp)
 8048971:	8b 45 0c             	mov    0xc(%ebp),%eax
 8048974:	0f b6 00             	movzbl (%eax),%eax
 8048977:	3c 73                	cmp    $0x73,%al
 8048979:	75 32                	jne    80489ad <vsprintf+0x7d>
 804897b:	83 45 10 04          	addl   $0x4,0x10(%ebp)
 804897f:	8b 45 10             	mov    0x10(%ebp),%eax
 8048982:	8b 40 fc             	mov    -0x4(%eax),%eax
 8048985:	89 45 f8             	mov    %eax,-0x8(%ebp)
 8048988:	90                   	nop
 8048989:	8b 45 fc             	mov    -0x4(%ebp),%eax
 804898c:	8d 50 01             	lea    0x1(%eax),%edx
 804898f:	89 55 fc             	mov    %edx,-0x4(%ebp)
 8048992:	8b 55 f8             	mov    -0x8(%ebp),%edx
 8048995:	8d 4a 01             	lea    0x1(%edx),%ecx
 8048998:	89 4d f8             	mov    %ecx,-0x8(%ebp)
 804899b:	0f b6 12             	movzbl (%edx),%edx
 804899e:	88 10                	mov    %dl,(%eax)
 80489a0:	0f b6 00             	movzbl (%eax),%eax
 80489a3:	84 c0                	test   %al,%al
 80489a5:	75 e2                	jne    8048989 <vsprintf+0x59>
 80489a7:	83 6d fc 01          	subl   $0x1,-0x4(%ebp)
 80489ab:	eb 7e                	jmp    8048a2b <vsprintf+0xfb>
 80489ad:	8b 45 0c             	mov    0xc(%ebp),%eax
 80489b0:	0f b6 00             	movzbl (%eax),%eax
 80489b3:	3c 64                	cmp    $0x64,%al
 80489b5:	74 0a                	je     80489c1 <vsprintf+0x91>
 80489b7:	8b 45 0c             	mov    0xc(%ebp),%eax
 80489ba:	0f b6 00             	movzbl (%eax),%eax
 80489bd:	3c 68                	cmp    $0x68,%al
 80489bf:	75 43                	jne    8048a04 <vsprintf+0xd4>
 80489c1:	83 45 10 04          	addl   $0x4,0x10(%ebp)
 80489c5:	8b 45 10             	mov    0x10(%ebp),%eax
 80489c8:	8b 40 fc             	mov    -0x4(%eax),%eax
 80489cb:	89 45 f0             	mov    %eax,-0x10(%ebp)
 80489ce:	8b 45 0c             	mov    0xc(%ebp),%eax
 80489d1:	0f b6 00             	movzbl (%eax),%eax
 80489d4:	0f be c0             	movsbl %al,%eax
 80489d7:	89 44 24 08          	mov    %eax,0x8(%esp)
 80489db:	8b 45 fc             	mov    -0x4(%ebp),%eax
 80489de:	89 44 24 04          	mov    %eax,0x4(%esp)
 80489e2:	8b 45 f0             	mov    -0x10(%ebp),%eax
 80489e5:	89 04 24             	mov    %eax,(%esp)
 80489e8:	e8 e9 fd ff ff       	call   80487d6 <to_num>
 80489ed:	90                   	nop
 80489ee:	8b 45 fc             	mov    -0x4(%ebp),%eax
 80489f1:	8d 50 01             	lea    0x1(%eax),%edx
 80489f4:	89 55 fc             	mov    %edx,-0x4(%ebp)
 80489f7:	0f b6 00             	movzbl (%eax),%eax
 80489fa:	84 c0                	test   %al,%al
 80489fc:	75 f0                	jne    80489ee <vsprintf+0xbe>
 80489fe:	83 6d fc 01          	subl   $0x1,-0x4(%ebp)
 8048a02:	eb 27                	jmp    8048a2b <vsprintf+0xfb>
 8048a04:	8b 45 0c             	mov    0xc(%ebp),%eax
 8048a07:	0f b6 00             	movzbl (%eax),%eax
 8048a0a:	3c 63                	cmp    $0x63,%al
 8048a0c:	75 1d                	jne    8048a2b <vsprintf+0xfb>
 8048a0e:	83 45 10 04          	addl   $0x4,0x10(%ebp)
 8048a12:	8b 45 10             	mov    0x10(%ebp),%eax
 8048a15:	0f b6 40 fc          	movzbl -0x4(%eax),%eax
 8048a19:	88 45 f7             	mov    %al,-0x9(%ebp)
 8048a1c:	8b 45 fc             	mov    -0x4(%ebp),%eax
 8048a1f:	8d 50 01             	lea    0x1(%eax),%edx
 8048a22:	89 55 fc             	mov    %edx,-0x4(%ebp)
 8048a25:	0f b6 55 f7          	movzbl -0x9(%ebp),%edx
 8048a29:	88 10                	mov    %dl,(%eax)
 8048a2b:	83 45 0c 01          	addl   $0x1,0xc(%ebp)
 8048a2f:	8b 45 0c             	mov    0xc(%ebp),%eax
 8048a32:	0f b6 00             	movzbl (%eax),%eax
 8048a35:	84 c0                	test   %al,%al
 8048a37:	0f 85 04 ff ff ff    	jne    8048941 <vsprintf+0x11>
 8048a3d:	c9                   	leave  
 8048a3e:	c3                   	ret    

08048a3f <panic_spin>:
 8048a3f:	55                   	push   %ebp
 8048a40:	89 e5                	mov    %esp,%ebp
 8048a42:	83 ec 18             	sub    $0x18,%esp
 8048a45:	fb                   	sti    
 8048a46:	c7 04 24 4d 8d 04 08 	movl   $0x8048d4d,(%esp)
 8048a4d:	e8 8e 00 00 00       	call   8048ae0 <put_str>
 8048a52:	c7 04 24 6b 8d 04 08 	movl   $0x8048d6b,(%esp)
 8048a59:	e8 82 00 00 00       	call   8048ae0 <put_str>
 8048a5e:	8b 45 08             	mov    0x8(%ebp),%eax
 8048a61:	89 04 24             	mov    %eax,(%esp)
 8048a64:	e8 77 00 00 00       	call   8048ae0 <put_str>
 8048a69:	c7 04 24 76 8d 04 08 	movl   $0x8048d76,(%esp)
 8048a70:	e8 6b 00 00 00       	call   8048ae0 <put_str>
 8048a75:	c7 04 24 78 8d 04 08 	movl   $0x8048d78,(%esp)
 8048a7c:	e8 5f 00 00 00       	call   8048ae0 <put_str>
 8048a81:	8b 45 0c             	mov    0xc(%ebp),%eax
 8048a84:	89 04 24             	mov    %eax,(%esp)
 8048a87:	e8 3f 01 00 00       	call   8048bcb <put_int>
 8048a8c:	c7 04 24 76 8d 04 08 	movl   $0x8048d76,(%esp)
 8048a93:	e8 48 00 00 00       	call   8048ae0 <put_str>
 8048a98:	c7 04 24 83 8d 04 08 	movl   $0x8048d83,(%esp)
 8048a9f:	e8 3c 00 00 00       	call   8048ae0 <put_str>
 8048aa4:	8b 45 10             	mov    0x10(%ebp),%eax
 8048aa7:	89 04 24             	mov    %eax,(%esp)
 8048aaa:	e8 31 00 00 00       	call   8048ae0 <put_str>
 8048aaf:	c7 04 24 76 8d 04 08 	movl   $0x8048d76,(%esp)
 8048ab6:	e8 25 00 00 00       	call   8048ae0 <put_str>
 8048abb:	c7 04 24 8e 8d 04 08 	movl   $0x8048d8e,(%esp)
 8048ac2:	e8 19 00 00 00       	call   8048ae0 <put_str>
 8048ac7:	8b 45 14             	mov    0x14(%ebp),%eax
 8048aca:	89 04 24             	mov    %eax,(%esp)
 8048acd:	e8 0e 00 00 00       	call   8048ae0 <put_str>
 8048ad2:	c7 04 24 76 8d 04 08 	movl   $0x8048d76,(%esp)
 8048ad9:	e8 02 00 00 00       	call   8048ae0 <put_str>
 8048ade:	eb fe                	jmp    8048ade <panic_spin+0x9f>

08048ae0 <put_str>:
 8048ae0:	53                   	push   %ebx
 8048ae1:	52                   	push   %edx
 8048ae2:	31 d2                	xor    %edx,%edx
 8048ae4:	8b 5c 24 0c          	mov    0xc(%esp),%ebx

08048ae8 <put_str.goon>:
 8048ae8:	8a 13                	mov    (%ebx),%dl
 8048aea:	80 fa 00             	cmp    $0x0,%dl
 8048aed:	74 0c                	je     8048afb <put_str.str_over>
 8048aef:	52                   	push   %edx
 8048af0:	e8 09 00 00 00       	call   8048afe <put_char>
 8048af5:	83 c4 04             	add    $0x4,%esp
 8048af8:	43                   	inc    %ebx
 8048af9:	eb ed                	jmp    8048ae8 <put_str.goon>

08048afb <put_str.str_over>:
 8048afb:	5a                   	pop    %edx
 8048afc:	5b                   	pop    %ebx
 8048afd:	c3                   	ret    

08048afe <put_char>:
 8048afe:	60                   	pusha  
 8048aff:	66 b8 18 00          	mov    $0x18,%ax
 8048b03:	8e e8                	mov    %eax,%gs
 8048b05:	66 ba d4 03          	mov    $0x3d4,%dx
 8048b09:	b0 0e                	mov    $0xe,%al
 8048b0b:	ee                   	out    %al,(%dx)
 8048b0c:	66 ba d5 03          	mov    $0x3d5,%dx
 8048b10:	ec                   	in     (%dx),%al
 8048b11:	88 c4                	mov    %al,%ah
 8048b13:	66 ba d4 03          	mov    $0x3d4,%dx
 8048b17:	b0 0f                	mov    $0xf,%al
 8048b19:	ee                   	out    %al,(%dx)
 8048b1a:	66 ba d5 03          	mov    $0x3d5,%dx
 8048b1e:	ec                   	in     (%dx),%al
 8048b1f:	66 89 c3             	mov    %ax,%bx
 8048b22:	8b 4c 24 24          	mov    0x24(%esp),%ecx
 8048b26:	80 f9 0d             	cmp    $0xd,%cl
 8048b29:	74 3c                	je     8048b67 <put_char.is_carriage_return>
 8048b2b:	80 f9 0a             	cmp    $0xa,%cl
 8048b2e:	74 37                	je     8048b67 <put_char.is_carriage_return>
 8048b30:	80 f9 08             	cmp    $0x8,%cl
 8048b33:	74 02                	je     8048b37 <put_char.is_backspace>
 8048b35:	eb 16                	jmp    8048b4d <put_char.put_other>

08048b37 <put_char.is_backspace>:
 8048b37:	66 4b                	dec    %bx
 8048b39:	66 d1 e3             	shl    %bx
 8048b3c:	65 67 c6 07 20       	movb   $0x20,%gs:(%bx)
 8048b41:	66 43                	inc    %bx
 8048b43:	65 67 c6 07 07       	movb   $0x7,%gs:(%bx)
 8048b48:	66 d1 eb             	shr    %bx
 8048b4b:	eb 60                	jmp    8048bad <put_char.set_cursor>

08048b4d <put_char.put_other>:
 8048b4d:	66 d1 e3             	shl    %bx
 8048b50:	65 67 88 0f          	mov    %cl,%gs:(%bx)
 8048b54:	66 43                	inc    %bx
 8048b56:	65 67 c6 07 07       	movb   $0x7,%gs:(%bx)
 8048b5b:	66 d1 eb             	shr    %bx
 8048b5e:	66 43                	inc    %bx
 8048b60:	66 81 fb d0 07       	cmp    $0x7d0,%bx
 8048b65:	7c 46                	jl     8048bad <put_char.set_cursor>

08048b67 <put_char.is_carriage_return>:
 8048b67:	66 31 d2             	xor    %dx,%dx
 8048b6a:	66 89 d8             	mov    %bx,%ax
 8048b6d:	66 be 50 00          	mov    $0x50,%si
 8048b71:	66 f7 f6             	div    %si
 8048b74:	66 29 d3             	sub    %dx,%bx

08048b77 <put_char.is_carriage_return_end>:
 8048b77:	66 83 c3 50          	add    $0x50,%bx
 8048b7b:	66 81 fb d0 07       	cmp    $0x7d0,%bx

08048b80 <put_char.is_line_feed_end>:
 8048b80:	7c 2b                	jl     8048bad <put_char.set_cursor>
 8048b82:	fc                   	cld    
 8048b83:	b9 c0 03 00 00       	mov    $0x3c0,%ecx
 8048b88:	be a0 80 0b c0       	mov    $0xc00b80a0,%esi
 8048b8d:	bf 00 80 0b c0       	mov    $0xc00b8000,%edi
 8048b92:	f3 a5                	rep movsl %ds:(%esi),%es:(%edi)
 8048b94:	bb 00 0f 00 00       	mov    $0xf00,%ebx
 8048b99:	b9 50 00 00 00       	mov    $0x50,%ecx

08048b9e <put_char.cls>:
 8048b9e:	65 66 c7 03 20 07    	movw   $0x720,%gs:(%ebx)
 8048ba4:	83 c3 02             	add    $0x2,%ebx
 8048ba7:	e2 f5                	loop   8048b9e <put_char.cls>
 8048ba9:	66 bb 80 07          	mov    $0x780,%bx

08048bad <put_char.set_cursor>:
 8048bad:	66 ba d4 03          	mov    $0x3d4,%dx
 8048bb1:	b0 0e                	mov    $0xe,%al
 8048bb3:	ee                   	out    %al,(%dx)
 8048bb4:	66 ba d5 03          	mov    $0x3d5,%dx
 8048bb8:	88 f8                	mov    %bh,%al
 8048bba:	ee                   	out    %al,(%dx)
 8048bbb:	66 ba d4 03          	mov    $0x3d4,%dx
 8048bbf:	b0 0f                	mov    $0xf,%al
 8048bc1:	ee                   	out    %al,(%dx)
 8048bc2:	66 ba d5 03          	mov    $0x3d5,%dx
 8048bc6:	88 d8                	mov    %bl,%al
 8048bc8:	ee                   	out    %al,(%dx)

08048bc9 <put_char.put_char_done>:
 8048bc9:	61                   	popa   
 8048bca:	c3                   	ret    

08048bcb <put_int>:
 8048bcb:	60                   	pusha  
 8048bcc:	89 e5                	mov    %esp,%ebp
 8048bce:	8b 45 24             	mov    0x24(%ebp),%eax
 8048bd1:	89 c2                	mov    %eax,%edx
 8048bd3:	b9 08 00 00 00       	mov    $0x8,%ecx
 8048bd8:	bf 07 00 00 00       	mov    $0x7,%edi
 8048bdd:	bb 00 b0 04 08       	mov    $0x804b000,%ebx

08048be2 <put_int.4bits>:
 8048be2:	83 e2 0f             	and    $0xf,%edx
 8048be5:	83 fa 09             	cmp    $0x9,%edx
 8048be8:	7f 05                	jg     8048bef <put_int.is_AtoF>
 8048bea:	83 c2 30             	add    $0x30,%edx
 8048bed:	eb 06                	jmp    8048bf5 <put_int.store>

08048bef <put_int.is_AtoF>:
 8048bef:	83 ea 0a             	sub    $0xa,%edx
 8048bf2:	83 c2 41             	add    $0x41,%edx

08048bf5 <put_int.store>:
 8048bf5:	88 14 3b             	mov    %dl,(%ebx,%edi,1)
 8048bf8:	4f                   	dec    %edi
 8048bf9:	c1 e8 04             	shr    $0x4,%eax
 8048bfc:	89 c2                	mov    %eax,%edx
 8048bfe:	e2 e2                	loop   8048be2 <put_int.4bits>

08048c00 <put_int.ready_to_print>:
 8048c00:	47                   	inc    %edi

08048c01 <put_int.skip_prefix_0>:
 8048c01:	83 ff 08             	cmp    $0x8,%edi
 8048c04:	74 0f                	je     8048c15 <put_int.full0>

08048c06 <put_int.go_on_skip>:
 8048c06:	8a 8f 00 b0 04 08    	mov    0x804b000(%edi),%cl
 8048c0c:	47                   	inc    %edi
 8048c0d:	80 f9 30             	cmp    $0x30,%cl
 8048c10:	74 ef                	je     8048c01 <put_int.skip_prefix_0>
 8048c12:	4f                   	dec    %edi
 8048c13:	eb 02                	jmp    8048c17 <put_int.put_each_num>

08048c15 <put_int.full0>:
 8048c15:	b1 30                	mov    $0x30,%cl

08048c17 <put_int.put_each_num>:
 8048c17:	51                   	push   %ecx
 8048c18:	e8 e1 fe ff ff       	call   8048afe <put_char>
 8048c1d:	83 c4 04             	add    $0x4,%esp
 8048c20:	47                   	inc    %edi
 8048c21:	8a 8f 00 b0 04 08    	mov    0x804b000(%edi),%cl
 8048c27:	83 ff 08             	cmp    $0x8,%edi
 8048c2a:	7c eb                	jl     8048c17 <put_int.put_each_num>
 8048c2c:	61                   	popa   
 8048c2d:	c3                   	ret    
